; Function Attrs: mustprogress nounwind uwtable
define internal fastcc void @_ZNSt6vectorIN5arrow12_GLOBAL__N_113ArrayImporterESaIS2_EED2Ev(ptr nocapture noundef nonnull readonly align 8 dereferenceable(24) %this) unnamed_addr #1 align 2 personality ptr @__gxx_personality_v0 {
entry:
  %0 = load ptr, ptr %this, align 8
  %_M_finish = getelementptr inbounds i8, ptr %this, i64 8
  %1 = load ptr, ptr %_M_finish, align 8
  %cmp.not.i.i2 = icmp eq ptr %0, %1
  br i1 %cmp.not.i.i2, label %invoke.cont, label %for.body.i.i

for.body.i.i:                                     ; preds = %entry, %for.body.i.i
  %__first.addr.0.i.i3 = phi ptr [ %incdec.ptr.i.i, %for.body.i.i ], [ %0, %entry ]
  tail call fastcc void @_ZSt8_DestroyIN5arrow12_GLOBAL__N_113ArrayImporterEEvPT_(ptr noundef %__first.addr.0.i.i3)
  %incdec.ptr.i.i = getelementptr inbounds i8, ptr %__first.addr.0.i.i3, i64 120
  %cmp.not.i.i = icmp eq ptr %incdec.ptr.i.i, %1
  br i1 %cmp.not.i.i, label %invoke.cont.loopexit, label %for.body.i.i, !llvm.loop !280

invoke.cont.loopexit:                             ; preds = %for.body.i.i
  %this.val.pre = load ptr, ptr %this, align 8
  br label %invoke.cont

invoke.cont:                                      ; preds = %invoke.cont.loopexit, %entry
  %this.val = phi ptr [ %this.val.pre, %invoke.cont.loopexit ], [ %0, %entry ]
  %tobool.not.i.i = icmp eq ptr %this.val, null
  br i1 %tobool.not.i.i, label %_ZNSt12_Vector_baseIN5arrow12_GLOBAL__N_113ArrayImporterESaIS2_EED2Ev.exit, label %if.then.i.i

if.then.i.i:                                      ; preds = %invoke.cont
  tail call void @_ZdlPv(ptr noundef nonnull %this.val) #26
  br label %_ZNSt12_Vector_baseIN5arrow12_GLOBAL__N_113ArrayImporterESaIS2_EED2Ev.exit

_ZNSt12_Vector_baseIN5arrow12_GLOBAL__N_113ArrayImporterESaIS2_EED2Ev.exit: ; preds = %invoke.cont, %if.then.i.i
  ret void
}